; ModuleID = '29/1085.c'
source_filename = "29/1085.c"
target datalayout = "e-m:e-p270:32:32-p271:32:32-p272:64:64-i64:64-f80:128-n8:16:32:64-S128"
target triple = "x86_64-pc-linux-gnu"

@.str = private unnamed_addr constant [3 x i8] c"%d\00", align 1
@.str.1 = private unnamed_addr constant [7 x i8] c"%.3lf\0A\00", align 1

; Function Attrs: noinline nounwind uwtable
define dso_local double @f(i32 %0) #0 {
  %2 = alloca i32, align 4
  %3 = alloca [100 x double], align 16
  %4 = alloca double, align 8
  %5 = alloca i32, align 4
  store i32 %0, i32* %2, align 4
  store double 0.000000e+00, double* %4, align 8
  %6 = getelementptr inbounds [100 x double], [100 x double]* %3, i64 0, i64 0
  store double 1.000000e+00, double* %6, align 16
  store i32 1, i32* %5, align 4
  br label %7

7:                                                ; preds = %28, %1
  %8 = load i32, i32* %5, align 4
  %9 = load i32, i32* %2, align 4
  %10 = icmp sle i32 %8, %9
  br i1 %10, label %11, label %31

11:                                               ; preds = %7
  %12 = load i32, i32* %5, align 4
  %13 = sub nsw i32 %12, 1
  %14 = sext i32 %13 to i64
  %15 = getelementptr inbounds [100 x double], [100 x double]* %3, i64 0, i64 %14
  %16 = load double, double* %15, align 8
  %17 = fdiv double 1.000000e+00, %16
  %18 = fadd double %17, 1.000000e+00
  %19 = load i32, i32* %5, align 4
  %20 = sext i32 %19 to i64
  %21 = getelementptr inbounds [100 x double], [100 x double]* %3, i64 0, i64 %20
  store double %18, double* %21, align 8
  %22 = load i32, i32* %5, align 4
  %23 = sext i32 %22 to i64
  %24 = getelementptr inbounds [100 x double], [100 x double]* %3, i64 0, i64 %23
  %25 = load double, double* %24, align 8
  %26 = load double, double* %4, align 8
  %27 = fadd double %26, %25
  store double %27, double* %4, align 8
  br label %28

28:                                               ; preds = %11
  %29 = load i32, i32* %5, align 4
  %30 = add nsw i32 %29, 1
  store i32 %30, i32* %5, align 4
  br label %7

31:                                               ; preds = %7
  %32 = load double, double* %4, align 8
  ret double %32
}

; Function Attrs: noinline nounwind uwtable
define dso_local i32 @main() #0 {
  %1 = alloca i32, align 4
  %2 = alloca i32, align 4
  %3 = alloca i32, align 4
  %4 = alloca [100 x i32], align 16
  store i32 0, i32* %1, align 4
  %5 = call i32 (i8*, ...) @__isoc99_scanf(i8* getelementptr inbounds ([3 x i8], [3 x i8]* @.str, i64 0, i64 0), i32* %2)
  store i32 0, i32* %3, align 4
  br label %6

6:                                                ; preds = %15, %0
  %7 = load i32, i32* %3, align 4
  %8 = load i32, i32* %2, align 4
  %9 = icmp slt i32 %7, %8
  br i1 %9, label %10, label %18

10:                                               ; preds = %6
  %11 = load i32, i32* %3, align 4
  %12 = sext i32 %11 to i64
  %13 = getelementptr inbounds [100 x i32], [100 x i32]* %4, i64 0, i64 %12
  %14 = call i32 (i8*, ...) @__isoc99_scanf(i8* getelementptr inbounds ([3 x i8], [3 x i8]* @.str, i64 0, i64 0), i32* %13)
  br label %15

15:                                               ; preds = %10
  %16 = load i32, i32* %3, align 4
  %17 = add nsw i32 %16, 1
  store i32 %17, i32* %3, align 4
  br label %6

18:                                               ; preds = %6
  store i32 0, i32* %3, align 4
  br label %19

19:                                               ; preds = %30, %18
  %20 = load i32, i32* %3, align 4
  %21 = load i32, i32* %2, align 4
  %22 = icmp slt i32 %20, %21
  br i1 %22, label %23, label %33

23:                                               ; preds = %19
  %24 = load i32, i32* %3, align 4
  %25 = sext i32 %24 to i64
  %26 = getelementptr inbounds [100 x i32], [100 x i32]* %4, i64 0, i64 %25
  %27 = load i32, i32* %26, align 4
  %28 = call double @f(i32 %27)
  %29 = call i32 (i8*, ...) @printf(i8* getelementptr inbounds ([7 x i8], [7 x i8]* @.str.1, i64 0, i64 0), double %28)
  br label %30

30:                                               ; preds = %23
  %31 = load i32, i32* %3, align 4
  %32 = add nsw i32 %31, 1
  store i32 %32, i32* %3, align 4
  br label %19

33:                                               ; preds = %19
  ret i32 0
}

declare dso_local i32 @__isoc99_scanf(i8*, ...) #1

declare dso_local i32 @printf(i8*, ...) #1


!llvm.module.flags = !{!0}
!llvm.ident = !{!1}

!0 = !{i32 1, !"wchar_size", i32 4}
!1 = !{!"clang version 10.0.0-4ubuntu1 "}
